target datalayout = "e-m:e-p270:32:32-p271:32:32-p272:64:64-i64:64-i128:128-f80:128-n8:16:32:64-S128"
target triple = "x86_64-pc-linux-gnu"

%struct.crypto_ex_data_st = type { ptr, ptr }
%struct.ui_method_st = type { ptr, ptr, ptr, ptr, ptr, ptr, ptr, ptr, ptr, %struct.crypto_ex_data_st }

@.str = private unnamed_addr constant [30 x i8] c"../openssl/crypto/ui/ui_lib.c\00", align 1
@__func__.UI_create_method = private unnamed_addr constant [17 x i8] c"UI_create_method\00", align 1

; Function Attrs: nounwind uwtable
define ptr @UI_create_method(ptr noundef %0) #0 {
  %2 = alloca ptr, align 8
  %3 = alloca ptr, align 8
  %4 = alloca ptr, align 8
  %5 = alloca i32, align 4
  store ptr %0, ptr %3, align 8, !tbaa !34
  call void @llvm.lifetime.start.p0(i64 8, ptr %4) #7
  store ptr null, ptr %4, align 8, !tbaa !3
  %6 = call noalias ptr @CRYPTO_zalloc(i64 noundef 88, ptr noundef @.str, i32 noundef 582)
  store ptr %6, ptr %4, align 8, !tbaa !3
  %7 = icmp eq ptr %6, null
  br i1 %7, label %20, label %8

8:                                                ; preds = %1
  %9 = load ptr, ptr %3, align 8, !tbaa !34
  %10 = call noalias ptr @CRYPTO_strdup(ptr noundef %9, ptr noundef @.str, i32 noundef 583)
  %11 = load ptr, ptr %4, align 8, !tbaa !3
  %12 = getelementptr inbounds nuw %struct.ui_method_st, ptr %11, i32 0, i32 0
  store ptr %10, ptr %12, align 8, !tbaa !50
  %13 = icmp eq ptr %10, null
  br i1 %13, label %20, label %14

14:                                               ; preds = %8
  %15 = load ptr, ptr %4, align 8, !tbaa !3
  %16 = load ptr, ptr %4, align 8, !tbaa !3
  %17 = getelementptr inbounds nuw %struct.ui_method_st, ptr %16, i32 0, i32 9
  %18 = call i32 @CRYPTO_new_ex_data(i32 noundef 14, ptr noundef %15, ptr noundef %17)
  %19 = icmp ne i32 %18, 0
  br i1 %19, label %35, label %20

20:                                               ; preds = %14, %8, %1
  %21 = load ptr, ptr %4, align 8, !tbaa !3
  %22 = icmp ne ptr %21, null
  br i1 %22, label %23, label %33

23:                                               ; preds = %20
  %24 = load ptr, ptr %4, align 8, !tbaa !3
  %25 = getelementptr inbounds nuw %struct.ui_method_st, ptr %24, i32 0, i32 0
  %26 = load ptr, ptr %25, align 8, !tbaa !50
  %27 = icmp ne ptr %26, null
  br i1 %27, label %28, label %29

28:                                               ; preds = %23
  call void @ERR_new()
  call void @ERR_set_debug(ptr noundef @.str, i32 noundef 593, ptr noundef @__func__.UI_create_method)
  call void (i32, i32, ptr, ...) @ERR_set_error(i32 noundef 40, i32 noundef 524303, ptr noundef null)
  br label %29

29:                                               ; preds = %28, %23
  %30 = load ptr, ptr %4, align 8, !tbaa !3
  %31 = getelementptr inbounds nuw %struct.ui_method_st, ptr %30, i32 0, i32 0
  %32 = load ptr, ptr %31, align 8, !tbaa !50
  call void @CRYPTO_free(ptr noundef %32, ptr noundef @.str, i32 noundef 594)
  br label %33

33:                                               ; preds = %29, %20
  %34 = load ptr, ptr %4, align 8, !tbaa !3
  call void @CRYPTO_free(ptr noundef %34, ptr noundef @.str, i32 noundef 596)
  store ptr null, ptr %2, align 8
  store i32 1, ptr %5, align 4
  br label %37

35:                                               ; preds = %14
  %36 = load ptr, ptr %4, align 8, !tbaa !3
  store ptr %36, ptr %2, align 8
  store i32 1, ptr %5, align 4
  br label %37

37:                                               ; preds = %35, %33
  call void @llvm.lifetime.end.p0(i64 8, ptr %4) #7
  %38 = load ptr, ptr %2, align 8
  ret ptr %38
}