; Function Attrs: nounwind uwtable
define ptr @UI_create_method(ptr noundef %0) local_unnamed_addr #0 {
  %2 = tail call noalias ptr @CRYPTO_zalloc(i64 noundef 88, ptr noundef nonnull @.str, i32 noundef 582) #8
  %cond = icmp eq ptr %2, null
  br i1 %cond, label %12, label %3

3:                                                ; preds = %1
  %4 = tail call noalias ptr @CRYPTO_strdup(ptr noundef %0, ptr noundef nonnull @.str, i32 noundef 583) #8
  store ptr %4, ptr %2, align 8, !tbaa !40
  %5 = icmp eq ptr %4, null
  br i1 %5, label %.thread, label %6

6:                                                ; preds = %3
  %7 = getelementptr inbounds nuw i8, ptr %2, i64 72
  %8 = tail call i32 @CRYPTO_new_ex_data(i32 noundef 14, ptr noundef nonnull %2, ptr noundef nonnull %7) #8
  %.not = icmp eq i32 %8, 0
  br i1 %.not, label %9, label %13

9:                                                ; preds = %6
  %.pr = load ptr, ptr %2, align 8, !tbaa !40
  %.not12 = icmp eq ptr %.pr, null
  br i1 %.not12, label %.thread, label %10

10:                                               ; preds = %9
  tail call void @ERR_new() #8
  tail call void @ERR_set_debug(ptr noundef nonnull @.str, i32 noundef 593, ptr noundef nonnull @__func__.UI_create_method) #8
  tail call void (i32, i32, ptr, ...) @ERR_set_error(i32 noundef 40, i32 noundef 524303, ptr noundef null) #8
  %.pre = load ptr, ptr %2, align 8, !tbaa !40
  br label %.thread

.thread:                                          ; preds = %3, %10, %9
  %11 = phi ptr [ null, %3 ], [ %.pre, %10 ], [ null, %9 ]
  tail call void @CRYPTO_free(ptr noundef %11, ptr noundef nonnull @.str, i32 noundef 594) #8
  br label %12

12:                                               ; preds = %1, %.thread
  tail call void @CRYPTO_free(ptr noundef %2, ptr noundef nonnull @.str, i32 noundef 596) #8
  br label %13

13:                                               ; preds = %6, %12
  %.0 = phi ptr [ null, %12 ], [ %2, %6 ]
  ret ptr %.0
}